target datalayout = "e-m:e-p270:32:32-p271:32:32-p272:64:64-i64:64-i128:128-f80:128-n8:16:32:64-S128"
target triple = "x86_64-pc-linux-gnu"

; Function Attrs: nounwind uwtable
define internal i32 @ec_GFp_mont_check_pub_key_order(ptr noundef %0, ptr noundef %1, ptr noundef %2) #0 {
  %4 = alloca ptr, align 8
  %5 = alloca ptr, align 8
  %6 = alloca ptr, align 8
  %7 = alloca ptr, align 8
  %8 = alloca i32, align 4
  store ptr %0, ptr %4, align 8, !tbaa !6
  store ptr %1, ptr %5, align 8, !tbaa !25
  store ptr %2, ptr %6, align 8, !tbaa !22
  call void @llvm.lifetime.start.p0(i64 8, ptr %7) #3
  %9 = load ptr, ptr %4, align 8, !tbaa !6
  %10 = call ptr @EC_POINT_new(ptr noundef %9)
  store ptr %10, ptr %7, align 8, !tbaa !25
  call void @llvm.lifetime.start.p0(i64 4, ptr %8) #3
  store i32 0, ptr %8, align 4, !tbaa !11
  %11 = load ptr, ptr %7, align 8, !tbaa !25
  %12 = icmp eq ptr %11, null
  br i1 %12, label %27, label %13

13:                                               ; preds = %3
  %14 = load ptr, ptr %4, align 8, !tbaa !6
  %15 = load ptr, ptr %7, align 8, !tbaa !25
  %16 = load ptr, ptr %5, align 8, !tbaa !25
  %17 = load ptr, ptr %4, align 8, !tbaa !6
  %18 = call ptr @EC_GROUP_get0_order(ptr noundef %17)
  %19 = load ptr, ptr %6, align 8, !tbaa !22
  %20 = call i32 @ec_wNAF_mul(ptr noundef %14, ptr noundef %15, ptr noundef null, ptr noundef %16, ptr noundef %18, ptr noundef %19)
  %21 = icmp ne i32 %20, 0
  br i1 %21, label %22, label %27

22:                                               ; preds = %13
  %23 = load ptr, ptr %4, align 8, !tbaa !6
  %24 = load ptr, ptr %7, align 8, !tbaa !25
  %25 = call i32 @EC_POINT_is_at_infinity(ptr noundef %23, ptr noundef %24)
  %26 = icmp ne i32 %25, 0
  br i1 %26, label %28, label %27

27:                                               ; preds = %22, %13, %3
  br label %29

28:                                               ; preds = %22
  store i32 1, ptr %8, align 4, !tbaa !11
  br label %29

29:                                               ; preds = %28, %27
  %30 = load ptr, ptr %7, align 8, !tbaa !25
  call void @EC_POINT_free(ptr noundef %30)
  %31 = load i32, ptr %8, align 4, !tbaa !11
  call void @llvm.lifetime.end.p0(i64 4, ptr %8) #3
  call void @llvm.lifetime.end.p0(i64 8, ptr %7) #3
  ret i32 %31
}