; Function Attrs: nounwind uwtable
define internal range(i32 0, 2) i32 @ec_GFp_mont_check_pub_key_order(ptr noundef %0, ptr noundef %1, ptr noundef %2) #0 {
  %4 = tail call ptr @EC_POINT_new(ptr noundef %0) #3
  %5 = icmp eq ptr %4, null
  br i1 %5, label %11, label %6

6:                                                ; preds = %3
  %7 = tail call ptr @EC_GROUP_get0_order(ptr noundef %0) #3
  %8 = tail call i32 @ec_wNAF_mul(ptr noundef %0, ptr noundef nonnull %4, ptr noundef null, ptr noundef %1, ptr noundef %7, ptr noundef %2) #3
  %.not = icmp eq i32 %8, 0
  br i1 %.not, label %11, label %9

9:                                                ; preds = %6
  %10 = tail call i32 @EC_POINT_is_at_infinity(ptr noundef %0, ptr noundef nonnull %4) #3
  %.not11 = icmp ne i32 %10, 0
  %spec.select = zext i1 %.not11 to i32
  br label %11

11:                                               ; preds = %9, %3, %6
  %.0 = phi i32 [ 0, %3 ], [ 0, %6 ], [ %spec.select, %9 ]
  tail call void @EC_POINT_free(ptr noundef %4) #3
  ret i32 %.0
}